; Function Attrs: mustprogress uwtable
define noundef zeroext i1 @_ZNK8QuantLib15LastFixingQuote7isValidEv(ptr nocapture noundef nonnull readonly align 8 dereferenceable(80) %this) unnamed_addr #6 align 2 {
entry:
  %index_ = getelementptr inbounds nuw i8, ptr %this, i64 64
  %0 = load ptr, ptr %index_, align 8, !tbaa !39
  %cmp.not.i = icmp eq ptr %0, null
  br i1 %cmp.not.i, label %cond.false.i, label %_ZNK5boost10shared_ptrIN8QuantLib5IndexEEptEv.exit, !prof !46

cond.false.i:                                     ; preds = %entry
  tail call void @_ZN5boost16assertion_failedEPKcS1_S1_l(ptr noundef nonnull @.str.6, ptr noundef nonnull @__PRETTY_FUNCTION__._ZNK5boost10shared_ptrIN8QuantLib5IndexEEptEv, ptr noundef nonnull @.str.7, i64 noundef 784)
  %.pre.i = load ptr, ptr %index_, align 8, !tbaa !39
  br label %_ZNK5boost10shared_ptrIN8QuantLib5IndexEEptEv.exit

_ZNK5boost10shared_ptrIN8QuantLib5IndexEEptEv.exit: ; preds = %entry, %cond.false.i
  %1 = phi ptr [ %0, %entry ], [ %.pre.i, %cond.false.i ]
  %call2 = tail call noundef nonnull align 8 dereferenceable(48) ptr @_ZNK8QuantLib5Index10timeSeriesEv(ptr noundef nonnull align 8 dereferenceable(112) %1)
  %_M_node_count.i.i.i = getelementptr inbounds i8, ptr %call2, i64 40
  %2 = load i64, ptr %_M_node_count.i.i.i, align 8, !tbaa !16
  %cmp.i.i.i = icmp ne i64 %2, 0
  ret i1 %cmp.i.i.i
}